target datalayout = "e-m:e-p270:32:32-p271:32:32-p272:64:64-i64:64-i128:128-f80:128-n8:16:32:64-S128"
target triple = "x86_64-pc-linux-gnu"

%struct.ParsedText = type { ptr, i32, i32, i32 }
%struct.FunctionCallInfoBaseData = type { ptr, ptr, ptr, i32, i8, i16, [0 x %struct.NullableDatum] }
%struct.NullableDatum = type { i64, i8 }
%struct.TSVectorBuildState = type { ptr, i32 }

; Function Attrs: inlinehint nounwind uwtable
define internal i64 @PointerGetDatum(ptr noundef %0) #1 {
  %2 = alloca ptr, align 8
  store ptr %0, ptr %2, align 8
  %3 = load ptr, ptr %2, align 8
  %4 = ptrtoint ptr %3 to i64
  ret i64 %4
}

; Function Attrs: inlinehint nounwind uwtable
define internal i64 @TSVectorGetDatum(ptr noundef %0) #1 {
  %2 = alloca ptr, align 8
  store ptr %0, ptr %2, align 8
  %3 = load ptr, ptr %2, align 8
  %4 = call i64 @PointerGetDatum(ptr noundef %3)
  ret i64 %4
}

; Function Attrs: inlinehint nounwind uwtable
define internal ptr @DatumGetPointer(i64 noundef %0) #1 {
  %2 = alloca i64, align 8
  store i64 %0, ptr %2, align 8
  %3 = load i64, ptr %2, align 8
  %4 = inttoptr i64 %3 to ptr
  ret ptr %4
}

; Function Attrs: nounwind uwtable
define internal ptr @jsonb_to_tsvector_worker(i32 noundef %0, ptr noundef %1, i32 noundef %2) #0 {
  %4 = alloca i32, align 4
  %5 = alloca ptr, align 8
  %6 = alloca i32, align 4
  %7 = alloca %struct.TSVectorBuildState, align 8
  %8 = alloca %struct.ParsedText, align 8
  store i32 %0, ptr %4, align 4
  store ptr %1, ptr %5, align 8
  store i32 %2, ptr %6, align 4
  call void @llvm.lifetime.start.p0(i64 16, ptr %7) #7
  call void @llvm.lifetime.start.p0(i64 24, ptr %8) #7
  %9 = getelementptr inbounds nuw %struct.ParsedText, ptr %8, i32 0, i32 0
  store ptr null, ptr %9, align 8
  %10 = getelementptr inbounds nuw %struct.ParsedText, ptr %8, i32 0, i32 2
  store i32 0, ptr %10, align 4
  %11 = getelementptr inbounds nuw %struct.TSVectorBuildState, ptr %7, i32 0, i32 0
  store ptr %8, ptr %11, align 8
  %12 = load i32, ptr %4, align 4
  %13 = getelementptr inbounds nuw %struct.TSVectorBuildState, ptr %7, i32 0, i32 1
  store i32 %12, ptr %13, align 8
  %14 = load ptr, ptr %5, align 8
  %15 = load i32, ptr %6, align 4
  call void @iterate_jsonb_values(ptr noundef %14, i32 noundef %15, ptr noundef %7, ptr noundef @add_to_tsvector)
  %16 = call ptr @make_tsvector(ptr noundef %8)
  call void @llvm.lifetime.end.p0(i64 24, ptr %8) #7
  call void @llvm.lifetime.end.p0(i64 16, ptr %7) #7
  ret ptr %16
}

; Function Attrs: inlinehint nounwind uwtable
define internal ptr @DatumGetJsonbP(i64 noundef %0) #1 {
  %2 = alloca i64, align 8
  store i64 %0, ptr %2, align 8
  %3 = load i64, ptr %2, align 8
  %4 = call ptr @DatumGetPointer(i64 noundef %3)
  %5 = call ptr @pg_detoast_datum(ptr noundef %4)
  ret ptr %5
}

; Function Attrs: inlinehint nounwind uwtable
define internal i32 @DatumGetObjectId(i64 noundef %0) #1 {
  %2 = alloca i64, align 8
  store i64 %0, ptr %2, align 8
  %3 = load i64, ptr %2, align 8
  %4 = trunc i64 %3 to i32
  ret i32 %4
}

; Function Attrs: nounwind uwtable
define dso_local i64 @jsonb_to_tsvector_byid(ptr noundef %0) #0 {
  %2 = alloca ptr, align 8
  %3 = alloca i32, align 4
  %4 = alloca ptr, align 8
  %5 = alloca ptr, align 8
  %6 = alloca ptr, align 8
  %7 = alloca i32, align 4
  store ptr %0, ptr %2, align 8
  call void @llvm.lifetime.start.p0(i64 4, ptr %3) #7
  %8 = load ptr, ptr %2, align 8
  %9 = getelementptr inbounds nuw %struct.FunctionCallInfoBaseData, ptr %8, i32 0, i32 6
  %10 = getelementptr inbounds [0 x %struct.NullableDatum], ptr %9, i64 0, i64 0
  %11 = getelementptr inbounds nuw %struct.NullableDatum, ptr %10, i32 0, i32 0
  %12 = load i64, ptr %11, align 8
  %13 = call i32 @DatumGetObjectId(i64 noundef %12)
  store i32 %13, ptr %3, align 4
  call void @llvm.lifetime.start.p0(i64 8, ptr %4) #7
  %14 = load ptr, ptr %2, align 8
  %15 = getelementptr inbounds nuw %struct.FunctionCallInfoBaseData, ptr %14, i32 0, i32 6
  %16 = getelementptr inbounds [0 x %struct.NullableDatum], ptr %15, i64 0, i64 1
  %17 = getelementptr inbounds nuw %struct.NullableDatum, ptr %16, i32 0, i32 0
  %18 = load i64, ptr %17, align 8
  %19 = call ptr @DatumGetJsonbP(i64 noundef %18)
  store ptr %19, ptr %4, align 8
  call void @llvm.lifetime.start.p0(i64 8, ptr %5) #7
  %20 = load ptr, ptr %2, align 8
  %21 = getelementptr inbounds nuw %struct.FunctionCallInfoBaseData, ptr %20, i32 0, i32 6
  %22 = getelementptr inbounds [0 x %struct.NullableDatum], ptr %21, i64 0, i64 2
  %23 = getelementptr inbounds nuw %struct.NullableDatum, ptr %22, i32 0, i32 0
  %24 = load i64, ptr %23, align 8
  %25 = call ptr @DatumGetJsonbP(i64 noundef %24)
  store ptr %25, ptr %5, align 8
  call void @llvm.lifetime.start.p0(i64 8, ptr %6) #7
  call void @llvm.lifetime.start.p0(i64 4, ptr %7) #7
  %26 = load ptr, ptr %5, align 8
  %27 = call i32 @parse_jsonb_index_flags(ptr noundef %26)
  store i32 %27, ptr %7, align 4
  %28 = load i32, ptr %3, align 4
  %29 = load ptr, ptr %4, align 8
  %30 = load i32, ptr %7, align 4
  %31 = call ptr @jsonb_to_tsvector_worker(i32 noundef %28, ptr noundef %29, i32 noundef %30)
  store ptr %31, ptr %6, align 8
  br label %32

32:                                               ; preds = %1
  %33 = load ptr, ptr %4, align 8
  %34 = load ptr, ptr %2, align 8
  %35 = getelementptr inbounds nuw %struct.FunctionCallInfoBaseData, ptr %34, i32 0, i32 6
  %36 = getelementptr inbounds [0 x %struct.NullableDatum], ptr %35, i64 0, i64 1
  %37 = getelementptr inbounds nuw %struct.NullableDatum, ptr %36, i32 0, i32 0
  %38 = load i64, ptr %37, align 8
  %39 = call ptr @DatumGetPointer(i64 noundef %38)
  %40 = icmp ne ptr %33, %39
  br i1 %40, label %41, label %43

41:                                               ; preds = %32
  %42 = load ptr, ptr %4, align 8
  call void @pfree(ptr noundef %42)
  br label %43

43:                                               ; preds = %41, %32
  br label %44

44:                                               ; preds = %43
  br label %45

45:                                               ; preds = %44
  br label %46

46:                                               ; preds = %45
  %47 = load ptr, ptr %5, align 8
  %48 = load ptr, ptr %2, align 8
  %49 = getelementptr inbounds nuw %struct.FunctionCallInfoBaseData, ptr %48, i32 0, i32 6
  %50 = getelementptr inbounds [0 x %struct.NullableDatum], ptr %49, i64 0, i64 2
  %51 = getelementptr inbounds nuw %struct.NullableDatum, ptr %50, i32 0, i32 0
  %52 = load i64, ptr %51, align 8
  %53 = call ptr @DatumGetPointer(i64 noundef %52)
  %54 = icmp ne ptr %47, %53
  br i1 %54, label %55, label %57

55:                                               ; preds = %46
  %56 = load ptr, ptr %5, align 8
  call void @pfree(ptr noundef %56)
  br label %57

57:                                               ; preds = %55, %46
  br label %58

58:                                               ; preds = %57
  br label %59

59:                                               ; preds = %58
  %60 = load ptr, ptr %6, align 8
  %61 = call i64 @TSVectorGetDatum(ptr noundef %60)
  call void @llvm.lifetime.end.p0(i64 4, ptr %7) #7
  call void @llvm.lifetime.end.p0(i64 8, ptr %6) #7
  call void @llvm.lifetime.end.p0(i64 8, ptr %5) #7
  call void @llvm.lifetime.end.p0(i64 8, ptr %4) #7
  call void @llvm.lifetime.end.p0(i64 4, ptr %3) #7
  ret i64 %61
}