; Function Attrs: nounwind uwtable
define dso_local noundef i64 @jsonb_to_tsvector_byid(ptr noundef readonly captures(none) %0) local_unnamed_addr #0 {
  %2 = alloca %struct.TSVectorBuildState, align 8
  %3 = alloca %struct.ParsedText, align 8
  %4 = getelementptr inbounds nuw i8, ptr %0, i64 32
  %5 = load i64, ptr %4, align 8
  %6 = trunc i64 %5 to i32
  %7 = getelementptr inbounds nuw i8, ptr %0, i64 48
  %8 = load i64, ptr %7, align 8
  %9 = inttoptr i64 %8 to ptr
  %10 = tail call ptr @pg_detoast_datum(ptr noundef %9) #8
  %11 = getelementptr inbounds nuw i8, ptr %0, i64 64
  %12 = load i64, ptr %11, align 8
  %13 = inttoptr i64 %12 to ptr
  %14 = tail call ptr @pg_detoast_datum(ptr noundef %13) #8
  %15 = tail call i32 @parse_jsonb_index_flags(ptr noundef %14) #8
  call void @llvm.lifetime.start.p0(i64 16, ptr nonnull %2) #8
  call void @llvm.lifetime.start.p0(i64 24, ptr nonnull %3) #8
  store ptr null, ptr %3, align 8
  %16 = getelementptr inbounds nuw i8, ptr %3, i64 12
  store i32 0, ptr %16, align 4
  store ptr %3, ptr %2, align 8
  %17 = getelementptr inbounds nuw i8, ptr %2, i64 8
  store i32 %6, ptr %17, align 8
  call void @iterate_jsonb_values(ptr noundef %10, i32 noundef %15, ptr noundef nonnull %2, ptr noundef nonnull @add_to_tsvector) #8
  %18 = call noundef ptr @make_tsvector(ptr noundef nonnull %3)
  call void @llvm.lifetime.end.p0(i64 24, ptr nonnull %3) #8
  call void @llvm.lifetime.end.p0(i64 16, ptr nonnull %2) #8
  %19 = load i64, ptr %7, align 8
  %20 = inttoptr i64 %19 to ptr
  %.not = icmp eq ptr %10, %20
  br i1 %.not, label %22, label %21

21:                                               ; preds = %1
  call void @pfree(ptr noundef %10) #8
  br label %22

22:                                               ; preds = %1, %21
  %23 = load i64, ptr %11, align 8
  %24 = inttoptr i64 %23 to ptr
  %.not14 = icmp eq ptr %14, %24
  br i1 %.not14, label %26, label %25

25:                                               ; preds = %22
  call void @pfree(ptr noundef %14) #8
  br label %26

26:                                               ; preds = %25, %22
  %27 = ptrtoint ptr %18 to i64
  ret i64 %27
}